; Function Attrs: mustprogress nofree norecurse nosync nounwind willreturn memory(argmem: readwrite) uwtable
define void @_ZN6icu_7514SimpleTimeZone15decodeStartRuleER10UErrorCode(ptr nocapture noundef nonnull align 8 dereferenceable(160) %this, ptr nocapture noundef nonnull align 4 dereferenceable(4) %status) local_unnamed_addr #5 align 2 {
entry:
  %0 = load i32, ptr %status, align 4
  %cmp.i = icmp slt i32 %0, 1
  br i1 %cmp.i, label %if.end, label %if.end91

if.end:                                           ; preds = %entry
  %startDay = getelementptr inbounds i8, ptr %this, i64 73
  %1 = load i8, ptr %startDay, align 1
  %cmp.not = icmp ne i8 %1, 0
  %endDay = getelementptr inbounds i8, ptr %this, i64 89
  %2 = load i8, ptr %endDay, align 1
  %cmp3 = icmp ne i8 %2, 0
  %3 = select i1 %cmp.not, i1 %cmp3, i1 false
  %conv4 = zext i1 %3 to i8
  %useDaylight = getelementptr inbounds i8, ptr %this, i64 104
  store i8 %conv4, ptr %useDaylight, align 8
  br i1 %3, label %land.lhs.true, label %if.end10

land.lhs.true:                                    ; preds = %if.end
  %dstSavings = getelementptr inbounds i8, ptr %this, i64 116
  %4 = load i32, ptr %dstSavings, align 4
  %cmp7 = icmp eq i32 %4, 0
  br i1 %cmp7, label %if.then8, label %if.then14

if.then8:                                         ; preds = %land.lhs.true
  store i32 3600000, ptr %dstSavings, align 4
  br label %if.then14

if.end10:                                         ; preds = %if.end
  br i1 %cmp.not, label %if.then14, label %if.end91

if.then14:                                        ; preds = %land.lhs.true, %if.then8, %if.end10
  %startMonth = getelementptr inbounds i8, ptr %this, i64 72
  %5 = load i8, ptr %startMonth, align 8
  %or.cond = icmp ugt i8 %5, 11
  br i1 %or.cond, label %if.end91.sink.split, label %if.end21

if.end21:                                         ; preds = %if.then14
  %startTime = getelementptr inbounds i8, ptr %this, i64 76
  %6 = load i32, ptr %startTime, align 4
  %or.cond7 = icmp ugt i32 %6, 86400000
  %startTimeMode = getelementptr inbounds i8, ptr %this, i64 80
  %7 = load i32, ptr %startTimeMode, align 8
  %or.cond8 = icmp ugt i32 %7, 2
  %or.cond10 = select i1 %or.cond7, i1 true, i1 %or.cond8
  br i1 %or.cond10, label %if.end91.sink.split, label %if.end32

if.end32:                                         ; preds = %if.end21
  %startDayOfWeek = getelementptr inbounds i8, ptr %this, i64 74
  %8 = load i8, ptr %startDayOfWeek, align 2
  %cmp34 = icmp eq i8 %8, 0
  br i1 %cmp34, label %if.end65.thread, label %if.else

if.end65.thread:                                  ; preds = %if.end32
  %startMode = getelementptr inbounds i8, ptr %this, i64 108
  store i32 1, ptr %startMode, align 4
  br label %if.else78

if.else:                                          ; preds = %if.end32
  %cmp38 = icmp sgt i8 %8, 0
  br i1 %cmp38, label %if.end59, label %if.else41

if.else41:                                        ; preds = %if.else
  %sub = sub i8 0, %8
  store i8 %sub, ptr %startDayOfWeek, align 2
  %cmp48 = icmp sgt i8 %1, 0
  br i1 %cmp48, label %if.end59, label %if.else51

if.else51:                                        ; preds = %if.else41
  %sub54 = sub i8 0, %1
  store i8 %sub54, ptr %startDay, align 1
  br label %if.end59

if.end59:                                         ; preds = %if.else41, %if.else, %if.else51
  %.sink = phi i32 [ 4, %if.else51 ], [ 2, %if.else ], [ 3, %if.else41 ]
  %9 = phi i8 [ %sub54, %if.else51 ], [ %1, %if.else ], [ %1, %if.else41 ]
  %10 = phi i8 [ %sub, %if.else51 ], [ %8, %if.else ], [ %sub, %if.else41 ]
  %startMode57 = getelementptr inbounds i8, ptr %this, i64 108
  store i32 %.sink, ptr %startMode57, align 4
  %cmp62 = icmp sgt i8 %10, 7
  br i1 %cmp62, label %if.end91.sink.split, label %if.end65

if.end65:                                         ; preds = %if.end59
  br i1 %cmp38, label %if.then68, label %if.else78

if.then68:                                        ; preds = %if.end65
  %11 = add i8 %9, -6
  %or.cond9 = icmp ult i8 %11, -11
  br i1 %or.cond9, label %if.end91.sink.split, label %if.end91

if.else78:                                        ; preds = %if.end65.thread, %if.end65
  %12 = phi i8 [ %1, %if.end65.thread ], [ %9, %if.end65 ]
  %cmp81 = icmp slt i8 %12, 1
  br i1 %cmp81, label %if.end91.sink.split, label %lor.lhs.false82

lor.lhs.false82:                                  ; preds = %if.else78
  %idxprom = zext nneg i8 %5 to i64
  %arrayidx = getelementptr inbounds [12 x i8], ptr @_ZN6icu_7514SimpleTimeZone17STATICMONTHLENGTHE, i64 0, i64 %idxprom
  %13 = load i8, ptr %arrayidx, align 1
  %cmp87 = icmp sgt i8 %12, %13
  br i1 %cmp87, label %if.end91.sink.split, label %if.end91

if.end91.sink.split:                              ; preds = %if.else78, %lor.lhs.false82, %if.then68, %if.end59, %if.end21, %if.then14
  store i32 1, ptr %status, align 4
  br label %if.end91

if.end91:                                         ; preds = %if.end91.sink.split, %if.then68, %lor.lhs.false82, %entry, %if.end10
  ret void
}